target datalayout = "e-m:e-p270:32:32-p271:32:32-p272:64:64-i64:64-i128:128-f80:128-n8:16:32:64-S128"
target triple = "x86_64-pc-linux-gnu"

%class.dtPathCorridor = type { [3 x float], [3 x float], ptr, i32, i32 }
%class.dtNavMeshQuery = type { ptr, %"struct.dtNavMeshQuery::dtQueryData", ptr, ptr, ptr }
%"struct.dtNavMeshQuery::dtQueryData" = type { i32, ptr, float, i32, i32, [3 x float], [3 x float], ptr, i32, float }

@.str.1 = private unnamed_addr constant [153 x i8] c"generated/home/dtcxzyw/WorkSpace/Projects/compilers/llvm-opt-benchmark/bench/recastnavigation/recastnavigation/DetourCrowd/Source/DetourPathCorridor.cpp\00", align 1
@.str.3 = private unnamed_addr constant [7 x i8] c"m_path\00", align 1
@.str.4 = private unnamed_addr constant [8 x i8] c"m_npath\00", align 1
@.str.5 = private unnamed_addr constant [9 x i8] c"navquery\00", align 1
@.str.7 = private unnamed_addr constant [4 x i8] c"nav\00", align 1

; Function Attrs: mustprogress nounwind uwtable
define linkonce_odr void @_Z7dtVcopyPfPKf(ptr noundef %0, ptr noundef %1) #1 comdat {
  %3 = alloca ptr, align 8
  %4 = alloca ptr, align 8
  store ptr %0, ptr %3, align 8
  store ptr %1, ptr %4, align 8
  %5 = load ptr, ptr %4, align 8
  %6 = getelementptr inbounds float, ptr %5, i64 0
  %7 = load float, ptr %6, align 4
  %8 = load ptr, ptr %3, align 8
  %9 = getelementptr inbounds float, ptr %8, i64 0
  store float %7, ptr %9, align 4
  %10 = load ptr, ptr %4, align 8
  %11 = getelementptr inbounds float, ptr %10, i64 1
  %12 = load float, ptr %11, align 4
  %13 = load ptr, ptr %3, align 8
  %14 = getelementptr inbounds float, ptr %13, i64 1
  store float %12, ptr %14, align 4
  %15 = load ptr, ptr %4, align 8
  %16 = getelementptr inbounds float, ptr %15, i64 2
  %17 = load float, ptr %16, align 4
  %18 = load ptr, ptr %3, align 8
  %19 = getelementptr inbounds float, ptr %18, i64 2
  store float %17, ptr %19, align 4
  ret void
}

; Function Attrs: mustprogress nounwind uwtable
define linkonce_odr noundef zeroext i1 @_Z15dtStatusSucceedj(i32 noundef %0) #1 comdat {
  %2 = alloca i32, align 4
  store i32 %0, ptr %2, align 4
  %3 = load i32, ptr %2, align 4
  %4 = and i32 %3, 1073741824
  %5 = icmp ne i32 %4, 0
  ret i1 %5
}

; Function Attrs: mustprogress nounwind uwtable
define linkonce_odr noundef ptr @_ZNK14dtNavMeshQuery18getAttachedNavMeshEv(ptr noundef nonnull align 8 dereferenceable(104) %0) #1 comdat align 2 {
  %2 = alloca ptr, align 8
  store ptr %0, ptr %2, align 8
  %3 = load ptr, ptr %2, align 8
  %4 = getelementptr inbounds %class.dtNavMeshQuery, ptr %3, i32 0, i32 0
  %5 = load ptr, ptr %4, align 8
  ret ptr %5
}

; Function Attrs: mustprogress uwtable
define noundef zeroext i1 @_ZN14dtPathCorridor25moveOverOffmeshConnectionEjPjPfS1_P14dtNavMeshQuery(ptr noundef nonnull align 8 dereferenceable(40) %0, i32 noundef %1, ptr noundef %2, ptr noundef %3, ptr noundef %4, ptr noundef %5) #0 align 2 {
  %7 = alloca i1, align 1
  %8 = alloca ptr, align 8
  %9 = alloca i32, align 4
  %10 = alloca ptr, align 8
  %11 = alloca ptr, align 8
  %12 = alloca ptr, align 8
  %13 = alloca ptr, align 8
  %14 = alloca ptr, align 8
  %15 = alloca ptr, align 8
  %16 = alloca ptr, align 8
  %17 = alloca i32, align 4
  %18 = alloca i32, align 4
  %19 = alloca i32, align 4
  %20 = alloca i32, align 4
  %21 = alloca ptr, align 8
  %22 = alloca ptr, align 8
  %23 = alloca i32, align 4
  store ptr %0, ptr %8, align 8
  store i32 %1, ptr %9, align 4
  store ptr %2, ptr %10, align 8
  store ptr %3, ptr %11, align 8
  store ptr %4, ptr %12, align 8
  store ptr %5, ptr %13, align 8
  %24 = load ptr, ptr %8, align 8
  %25 = call noundef ptr @_Z21dtAssertFailGetCustomv()
  store ptr %25, ptr %14, align 8
  %26 = load ptr, ptr %14, align 8
  %27 = icmp eq ptr %26, null
  br i1 %27, label %28, label %29

28:                                               ; preds = %6
  br label %35

29:                                               ; preds = %6
  %30 = load ptr, ptr %13, align 8
  %31 = icmp ne ptr %30, null
  br i1 %31, label %34, label %32

32:                                               ; preds = %29
  %33 = load ptr, ptr %14, align 8
  call void %33(ptr noundef @.str.5, ptr noundef @.str.1, i32 noundef 384)
  br label %34

34:                                               ; preds = %32, %29
  br label %35

35:                                               ; preds = %34, %28
  %36 = call noundef ptr @_Z21dtAssertFailGetCustomv()
  store ptr %36, ptr %15, align 8
  %37 = load ptr, ptr %15, align 8
  %38 = icmp eq ptr %37, null
  br i1 %38, label %39, label %40

39:                                               ; preds = %35
  br label %47

40:                                               ; preds = %35
  %41 = getelementptr inbounds %class.dtPathCorridor, ptr %24, i32 0, i32 2
  %42 = load ptr, ptr %41, align 8
  %43 = icmp ne ptr %42, null
  br i1 %43, label %46, label %44

44:                                               ; preds = %40
  %45 = load ptr, ptr %15, align 8
  call void %45(ptr noundef @.str.3, ptr noundef @.str.1, i32 noundef 385)
  br label %46

46:                                               ; preds = %44, %40
  br label %47

47:                                               ; preds = %46, %39
  %48 = call noundef ptr @_Z21dtAssertFailGetCustomv()
  store ptr %48, ptr %16, align 8
  %49 = load ptr, ptr %16, align 8
  %50 = icmp eq ptr %49, null
  br i1 %50, label %51, label %52

51:                                               ; preds = %47
  br label %59

52:                                               ; preds = %47
  %53 = getelementptr inbounds %class.dtPathCorridor, ptr %24, i32 0, i32 3
  %54 = load i32, ptr %53, align 8
  %55 = icmp ne i32 %54, 0
  br i1 %55, label %58, label %56

56:                                               ; preds = %52
  %57 = load ptr, ptr %16, align 8
  call void %57(ptr noundef @.str.4, ptr noundef @.str.1, i32 noundef 386)
  br label %58

58:                                               ; preds = %56, %52
  br label %59

59:                                               ; preds = %58, %51
  store i32 0, ptr %17, align 4
  %60 = getelementptr inbounds %class.dtPathCorridor, ptr %24, i32 0, i32 2
  %61 = load ptr, ptr %60, align 8
  %62 = getelementptr inbounds i32, ptr %61, i64 0
  %63 = load i32, ptr %62, align 4
  store i32 %63, ptr %18, align 4
  store i32 0, ptr %19, align 4
  br label %64

64:                                               ; preds = %75, %59
  %65 = load i32, ptr %19, align 4
  %66 = getelementptr inbounds %class.dtPathCorridor, ptr %24, i32 0, i32 3
  %67 = load i32, ptr %66, align 8
  %68 = icmp slt i32 %65, %67
  br i1 %68, label %69, label %73

69:                                               ; preds = %64
  %70 = load i32, ptr %18, align 4
  %71 = load i32, ptr %9, align 4
  %72 = icmp ne i32 %70, %71
  br label %73

73:                                               ; preds = %69, %64
  %74 = phi i1 [ false, %64 ], [ %72, %69 ]
  br i1 %74, label %75, label %85

75:                                               ; preds = %73
  %76 = load i32, ptr %18, align 4
  store i32 %76, ptr %17, align 4
  %77 = getelementptr inbounds %class.dtPathCorridor, ptr %24, i32 0, i32 2
  %78 = load ptr, ptr %77, align 8
  %79 = load i32, ptr %19, align 4
  %80 = sext i32 %79 to i64
  %81 = getelementptr inbounds i32, ptr %78, i64 %80
  %82 = load i32, ptr %81, align 4
  store i32 %82, ptr %18, align 4
  %83 = load i32, ptr %19, align 4
  %84 = add nsw i32 %83, 1
  store i32 %84, ptr %19, align 4
  br label %64, !llvm.loop !15

85:                                               ; preds = %73
  %86 = load i32, ptr %19, align 4
  %87 = getelementptr inbounds %class.dtPathCorridor, ptr %24, i32 0, i32 3
  %88 = load i32, ptr %87, align 8
  %89 = icmp eq i32 %86, %88
  br i1 %89, label %90, label %91

90:                                               ; preds = %85
  store i1 false, ptr %7, align 1
  br label %156

91:                                               ; preds = %85
  %92 = load i32, ptr %19, align 4
  store i32 %92, ptr %20, align 4
  br label %93

93:                                               ; preds = %112, %91
  %94 = load i32, ptr %20, align 4
  %95 = getelementptr inbounds %class.dtPathCorridor, ptr %24, i32 0, i32 3
  %96 = load i32, ptr %95, align 8
  %97 = icmp slt i32 %94, %96
  br i1 %97, label %98, label %115

98:                                               ; preds = %93
  %99 = getelementptr inbounds %class.dtPathCorridor, ptr %24, i32 0, i32 2
  %100 = load ptr, ptr %99, align 8
  %101 = load i32, ptr %20, align 4
  %102 = sext i32 %101 to i64
  %103 = getelementptr inbounds i32, ptr %100, i64 %102
  %104 = load i32, ptr %103, align 4
  %105 = getelementptr inbounds %class.dtPathCorridor, ptr %24, i32 0, i32 2
  %106 = load ptr, ptr %105, align 8
  %107 = load i32, ptr %20, align 4
  %108 = load i32, ptr %19, align 4
  %109 = sub nsw i32 %107, %108
  %110 = sext i32 %109 to i64
  %111 = getelementptr inbounds i32, ptr %106, i64 %110
  store i32 %104, ptr %111, align 4
  br label %112

112:                                              ; preds = %98
  %113 = load i32, ptr %20, align 4
  %114 = add nsw i32 %113, 1
  store i32 %114, ptr %20, align 4
  br label %93, !llvm.loop !16

115:                                              ; preds = %93
  %116 = load i32, ptr %19, align 4
  %117 = getelementptr inbounds %class.dtPathCorridor, ptr %24, i32 0, i32 3
  %118 = load i32, ptr %117, align 8
  %119 = sub nsw i32 %118, %116
  store i32 %119, ptr %117, align 8
  %120 = load i32, ptr %17, align 4
  %121 = load ptr, ptr %10, align 8
  %122 = getelementptr inbounds i32, ptr %121, i64 0
  store i32 %120, ptr %122, align 4
  %123 = load i32, ptr %18, align 4
  %124 = load ptr, ptr %10, align 8
  %125 = getelementptr inbounds i32, ptr %124, i64 1
  store i32 %123, ptr %125, align 4
  %126 = load ptr, ptr %13, align 8
  %127 = call noundef ptr @_ZNK14dtNavMeshQuery18getAttachedNavMeshEv(ptr noundef nonnull align 8 dereferenceable(104) %126)
  store ptr %127, ptr %21, align 8
  %128 = call noundef ptr @_Z21dtAssertFailGetCustomv()
  store ptr %128, ptr %22, align 8
  %129 = load ptr, ptr %22, align 8
  %130 = icmp eq ptr %129, null
  br i1 %130, label %131, label %132

131:                                              ; preds = %115
  br label %138

132:                                              ; preds = %115
  %133 = load ptr, ptr %21, align 8
  %134 = icmp ne ptr %133, null
  br i1 %134, label %137, label %135

135:                                              ; preds = %132
  %136 = load ptr, ptr %22, align 8
  call void %136(ptr noundef @.str.7, ptr noundef @.str.1, i32 noundef 412)
  br label %137

137:                                              ; preds = %135, %132
  br label %138

138:                                              ; preds = %137, %131
  %139 = load ptr, ptr %21, align 8
  %140 = load ptr, ptr %10, align 8
  %141 = getelementptr inbounds i32, ptr %140, i64 0
  %142 = load i32, ptr %141, align 4
  %143 = load ptr, ptr %10, align 8
  %144 = getelementptr inbounds i32, ptr %143, i64 1
  %145 = load i32, ptr %144, align 4
  %146 = load ptr, ptr %11, align 8
  %147 = load ptr, ptr %12, align 8
  %148 = call noundef i32 @_ZNK9dtNavMesh33getOffMeshConnectionPolyEndPointsEjjPfS0_(ptr noundef nonnull align 8 dereferenceable(100) %139, i32 noundef %142, i32 noundef %145, ptr noundef %146, ptr noundef %147)
  store i32 %148, ptr %23, align 4
  %149 = load i32, ptr %23, align 4
  %150 = call noundef zeroext i1 @_Z15dtStatusSucceedj(i32 noundef %149)
  br i1 %150, label %151, label %155

151:                                              ; preds = %138
  %152 = getelementptr inbounds %class.dtPathCorridor, ptr %24, i32 0, i32 0
  %153 = getelementptr inbounds [3 x float], ptr %152, i64 0, i64 0
  %154 = load ptr, ptr %12, align 8
  call void @_Z7dtVcopyPfPKf(ptr noundef %153, ptr noundef %154)
  store i1 true, ptr %7, align 1
  br label %156

155:                                              ; preds = %138
  store i1 false, ptr %7, align 1
  br label %156

156:                                              ; preds = %155, %151, %90
  %157 = load i1, ptr %7, align 1
  ret i1 %157
}