; Function Attrs: mustprogress uwtable
define noundef zeroext i1 @_ZN14dtPathCorridor25moveOverOffmeshConnectionEjPjPfS1_P14dtNavMeshQuery(ptr noundef nonnull align 8 captures(none) dereferenceable(40) %0, i32 noundef %1, ptr noundef captures(none) %2, ptr noundef %3, ptr noundef %4, ptr noundef readonly %5) local_unnamed_addr #2 align 2 {
  %7 = tail call noundef ptr @_Z21dtAssertFailGetCustomv()
  %8 = icmp eq ptr %7, null
  %9 = icmp ne ptr %5, null
  %or.cond = or i1 %9, %8
  br i1 %or.cond, label %11, label %10

10:                                               ; preds = %6
  tail call void %7(ptr noundef nonnull @.str.5, ptr noundef nonnull @.str.1, i32 noundef 384)
  br label %11

11:                                               ; preds = %10, %6
  %12 = tail call noundef ptr @_Z21dtAssertFailGetCustomv()
  %13 = icmp ne ptr %12, null
  %14 = getelementptr inbounds nuw i8, ptr %0, i64 24
  %15 = load ptr, ptr %14, align 8
  %.not = icmp eq ptr %15, null
  %or.cond51 = select i1 %13, i1 %.not, i1 false
  br i1 %or.cond51, label %16, label %17

16:                                               ; preds = %11
  tail call void %12(ptr noundef nonnull @.str.3, ptr noundef nonnull @.str.1, i32 noundef 385)
  br label %17

17:                                               ; preds = %16, %11
  %18 = tail call noundef ptr @_Z21dtAssertFailGetCustomv()
  %19 = icmp ne ptr %18, null
  %20 = getelementptr inbounds nuw i8, ptr %0, i64 32
  %21 = load i32, ptr %20, align 8
  %.not49 = icmp eq i32 %21, 0
  %or.cond53 = select i1 %19, i1 %.not49, i1 false
  br i1 %or.cond53, label %22, label %23

22:                                               ; preds = %17
  tail call void %18(ptr noundef nonnull @.str.4, ptr noundef nonnull @.str.1, i32 noundef 386)
  %.pre = load i32, ptr %20, align 8
  br label %23

23:                                               ; preds = %22, %17
  %24 = phi i32 [ %.pre, %22 ], [ %21, %17 ]
  %25 = load ptr, ptr %14, align 8
  %.04156 = load i32, ptr %25, align 4
  %26 = icmp sgt i32 %24, 0
  %27 = icmp ne i32 %.04156, %1
  %28 = select i1 %26, i1 %27, i1 false
  br i1 %28, label %.lr.ph.preheader, label %._crit_edge

.lr.ph.preheader:                                 ; preds = %23
  %29 = zext nneg i32 %24 to i64
  br label %.lr.ph

.lr.ph:                                           ; preds = %.lr.ph.preheader, %.lr.ph
  %indvars.iv = phi i64 [ 0, %.lr.ph.preheader ], [ %indvars.iv.next, %.lr.ph ]
  %.04158 = phi i32 [ %.04156, %.lr.ph.preheader ], [ %.041, %.lr.ph ]
  %30 = getelementptr inbounds nuw i32, ptr %25, i64 %indvars.iv
  %indvars.iv.next = add nuw nsw i64 %indvars.iv, 1
  %.041 = load i32, ptr %30, align 4
  %31 = icmp samesign ult i64 %indvars.iv.next, %29
  %32 = icmp ne i32 %.041, %1
  %33 = select i1 %31, i1 %32, i1 false
  br i1 %33, label %.lr.ph, label %._crit_edge.loopexit, !llvm.loop !14

._crit_edge.loopexit:                             ; preds = %.lr.ph
  %34 = trunc nuw nsw i64 %indvars.iv.next to i32
  br label %._crit_edge

._crit_edge:                                      ; preds = %._crit_edge.loopexit, %23
  %.043.lcssa = phi i32 [ 0, %23 ], [ %34, %._crit_edge.loopexit ]
  %.040.lcssa = phi i32 [ 0, %23 ], [ %.04158, %._crit_edge.loopexit ]
  %.041.lcssa = phi i32 [ %.04156, %23 ], [ %.041, %._crit_edge.loopexit ]
  %35 = icmp eq i32 %.043.lcssa, %24
  br i1 %35, label %67, label %.preheader

.preheader:                                       ; preds = %._crit_edge
  %36 = icmp slt i32 %.043.lcssa, %24
  br i1 %36, label %.lr.ph63.preheader, label %._crit_edge64

.lr.ph63.preheader:                               ; preds = %.preheader
  %37 = zext nneg i32 %.043.lcssa to i64
  %38 = sext i32 %.043.lcssa to i64
  br label %.lr.ph63

.lr.ph63:                                         ; preds = %.lr.ph63.preheader, %.lr.ph63
  %indvars.iv70 = phi i64 [ %37, %.lr.ph63.preheader ], [ %indvars.iv.next71, %.lr.ph63 ]
  %39 = load ptr, ptr %14, align 8
  %40 = getelementptr inbounds nuw i32, ptr %39, i64 %indvars.iv70
  %41 = load i32, ptr %40, align 4
  %42 = sub nuw nsw i64 %indvars.iv70, %38
  %43 = getelementptr inbounds nuw i32, ptr %39, i64 %42
  store i32 %41, ptr %43, align 4
  %indvars.iv.next71 = add nuw nsw i64 %indvars.iv70, 1
  %44 = load i32, ptr %20, align 8
  %45 = sext i32 %44 to i64
  %46 = icmp slt i64 %indvars.iv.next71, %45
  br i1 %46, label %.lr.ph63, label %._crit_edge64, !llvm.loop !15

._crit_edge64:                                    ; preds = %.lr.ph63, %.preheader
  %.lcssa = phi i32 [ %24, %.preheader ], [ %44, %.lr.ph63 ]
  %47 = sub nsw i32 %.lcssa, %.043.lcssa
  store i32 %47, ptr %20, align 8
  store i32 %.040.lcssa, ptr %2, align 4
  %48 = getelementptr inbounds nuw i8, ptr %2, i64 4
  store i32 %.041.lcssa, ptr %48, align 4
  %49 = load ptr, ptr %5, align 8
  %50 = tail call noundef ptr @_Z21dtAssertFailGetCustomv()
  %51 = icmp eq ptr %50, null
  %52 = icmp ne ptr %49, null
  %or.cond3 = or i1 %52, %51
  br i1 %or.cond3, label %54, label %53

53:                                               ; preds = %._crit_edge64
  tail call void %50(ptr noundef nonnull @.str.7, ptr noundef nonnull @.str.1, i32 noundef 412)
  br label %54

54:                                               ; preds = %53, %._crit_edge64
  %55 = load i32, ptr %2, align 4
  %56 = load i32, ptr %48, align 4
  %57 = tail call noundef i32 @_ZNK9dtNavMesh33getOffMeshConnectionPolyEndPointsEjjPfS0_(ptr noundef nonnull align 8 dereferenceable(100) %49, i32 noundef %55, i32 noundef %56, ptr noundef %3, ptr noundef %4)
  %58 = and i32 %57, 1073741824
  %.not54 = icmp eq i32 %58, 0
  br i1 %.not54, label %67, label %59

59:                                               ; preds = %54
  %60 = load float, ptr %4, align 4
  store float %60, ptr %0, align 8
  %61 = getelementptr inbounds nuw i8, ptr %4, i64 4
  %62 = load float, ptr %61, align 4
  %63 = getelementptr inbounds nuw i8, ptr %0, i64 4
  store float %62, ptr %63, align 4
  %64 = getelementptr inbounds nuw i8, ptr %4, i64 8
  %65 = load float, ptr %64, align 4
  %66 = getelementptr inbounds nuw i8, ptr %0, i64 8
  store float %65, ptr %66, align 8
  br label %67

67:                                               ; preds = %54, %._crit_edge, %59
  %.0 = phi i1 [ true, %59 ], [ false, %._crit_edge ], [ false, %54 ]
  ret i1 %.0
}